target datalayout = "e-m:e-p270:32:32-p271:32:32-p272:64:64-i64:64-i128:128-f80:128-n8:16:32:64-S128"
target triple = "x86_64-pc-linux-gnu"

%"class.google::protobuf::stringpiece_internal::StringPiece" = type { ptr, i64 }

; Function Attrs: mustprogress nounwind uwtable
define linkonce_odr hidden noundef zeroext i1 @_ZNK6google8protobuf20stringpiece_internal11StringPiece11starts_withES2_(ptr noundef nonnull align 8 dereferenceable(16) %0, ptr %1, i64 %2) #2 comdat align 2 {
  %4 = alloca %"class.google::protobuf::stringpiece_internal::StringPiece", align 8
  %5 = alloca ptr, align 8
  %6 = getelementptr inbounds nuw { ptr, i64 }, ptr %4, i32 0, i32 0
  store ptr %1, ptr %6, align 8
  %7 = getelementptr inbounds nuw { ptr, i64 }, ptr %4, i32 0, i32 1
  store i64 %2, ptr %7, align 8
  store ptr %0, ptr %5, align 8, !tbaa !8
  %8 = load ptr, ptr %5, align 8
  %9 = getelementptr inbounds nuw %"class.google::protobuf::stringpiece_internal::StringPiece", ptr %8, i32 0, i32 1
  %10 = load i64, ptr %9, align 8, !tbaa !14
  %11 = getelementptr inbounds nuw %"class.google::protobuf::stringpiece_internal::StringPiece", ptr %4, i32 0, i32 1
  %12 = load i64, ptr %11, align 8, !tbaa !14
  %13 = icmp uge i64 %10, %12
  br i1 %13, label %14, label %23

14:                                               ; preds = %3
  %15 = getelementptr inbounds nuw %"class.google::protobuf::stringpiece_internal::StringPiece", ptr %8, i32 0, i32 0
  %16 = load ptr, ptr %15, align 8, !tbaa !10
  %17 = getelementptr inbounds nuw %"class.google::protobuf::stringpiece_internal::StringPiece", ptr %4, i32 0, i32 0
  %18 = load ptr, ptr %17, align 8, !tbaa !10
  %19 = getelementptr inbounds nuw %"class.google::protobuf::stringpiece_internal::StringPiece", ptr %4, i32 0, i32 1
  %20 = load i64, ptr %19, align 8, !tbaa !14
  %21 = call i32 @memcmp(ptr noundef %16, ptr noundef %18, i64 noundef %20) #14
  %22 = icmp eq i32 %21, 0
  br label %23

23:                                               ; preds = %14, %3
  %24 = phi i1 [ false, %3 ], [ %22, %14 ]
  ret i1 %24
}

; Function Attrs: mustprogress uwtable
define hidden noundef zeroext i1 @_ZN6google8protobuf20stringpiece_internal11StringPiece7ConsumeES2_(ptr noundef nonnull align 8 dereferenceable(16) %0, ptr %1, i64 %2) #0 align 2 {
  %4 = alloca i1, align 1
  %5 = alloca %"class.google::protobuf::stringpiece_internal::StringPiece", align 8
  %6 = alloca ptr, align 8
  %7 = alloca %"class.google::protobuf::stringpiece_internal::StringPiece", align 8
  %8 = getelementptr inbounds nuw { ptr, i64 }, ptr %5, i32 0, i32 0
  store ptr %1, ptr %8, align 8
  %9 = getelementptr inbounds nuw { ptr, i64 }, ptr %5, i32 0, i32 1
  store i64 %2, ptr %9, align 8
  store ptr %0, ptr %6, align 8, !tbaa !8
  %10 = load ptr, ptr %6, align 8
  call void @llvm.memcpy.p0.p0.i64(ptr align 8 %7, ptr align 8 %5, i64 16, i1 false), !tbaa.struct !19
  %11 = getelementptr inbounds nuw { ptr, i64 }, ptr %7, i32 0, i32 0
  %12 = load ptr, ptr %11, align 8
  %13 = getelementptr inbounds nuw { ptr, i64 }, ptr %7, i32 0, i32 1
  %14 = load i64, ptr %13, align 8
  %15 = call noundef zeroext i1 @_ZNK6google8protobuf20stringpiece_internal11StringPiece11starts_withES2_(ptr noundef nonnull align 8 dereferenceable(16) %10, ptr %12, i64 %14)
  br i1 %15, label %16, label %27

16:                                               ; preds = %3
  %17 = getelementptr inbounds nuw %"class.google::protobuf::stringpiece_internal::StringPiece", ptr %5, i32 0, i32 1
  %18 = load i64, ptr %17, align 8, !tbaa !14
  %19 = getelementptr inbounds nuw %"class.google::protobuf::stringpiece_internal::StringPiece", ptr %10, i32 0, i32 0
  %20 = load ptr, ptr %19, align 8, !tbaa !10
  %21 = getelementptr inbounds nuw i8, ptr %20, i64 %18
  store ptr %21, ptr %19, align 8, !tbaa !10
  %22 = getelementptr inbounds nuw %"class.google::protobuf::stringpiece_internal::StringPiece", ptr %5, i32 0, i32 1
  %23 = load i64, ptr %22, align 8, !tbaa !14
  %24 = getelementptr inbounds nuw %"class.google::protobuf::stringpiece_internal::StringPiece", ptr %10, i32 0, i32 1
  %25 = load i64, ptr %24, align 8, !tbaa !14
  %26 = sub i64 %25, %23
  store i64 %26, ptr %24, align 8, !tbaa !14
  store i1 true, ptr %4, align 1
  br label %28

27:                                               ; preds = %3
  store i1 false, ptr %4, align 1
  br label %28

28:                                               ; preds = %27, %16
  %29 = load i1, ptr %4, align 1
  ret i1 %29
}